
IBM(R) Linker for OS/2(R), Version 5.0 
Copyright (C) IBM Corporation 1988, 2003.
Copyright (C) Microsoft Corp. 1988, 1989.
All rights reserved.

Current option settings:
	EXEC	CODE:RX	DATA:RW
	Alignfile:0x00000010	ALIGNAddr:0x00010000	BASE:0x00010000
	NOBRowse	NODBgpack	NODEbug:none	DEFaultlibrarysearch
	NOEXEPACK	NOEXTdictionary	FIxed	NOFReeformat	NOIGnorecase
	NOLinenumbers	NOLOgo	MAP:sna2tap.map	OCache:0x02000000
	NOOLDcpp	NOOPTFunc	PACKCode:0xffffffff
	PACKData:0xffffffff	PMTYPE:VIO	SEGMENTS:256 	SEGOrder
	STACK:0x00100000	NOSTRictwarnings	NONOSTRictwarnings
	STUB:U:\USR\BIN\os2stub.bin	NOVERBose	VERSION:00.00



 SNA2TAP

 Start         Length     Name                   Class
 0001:00000000 000001500H TEXT32                 CODE 32-bit
	at offset 00000000 00040H bytes from U:\usr\lib\crt0wild.obj ({standard input})
	at offset 00000040 00010H bytes from U:\usr\lib\binmode.obj ({standard input})
	at offset 00000050 00F40H bytes from U:\tmp\ldconv_sna2tap_o_87084d30d4691f3a70.obj (ldconv_sna2tap_o_87084d30d4691f3a70.obj)
	at offset 00000F90 00480H bytes from U:\tmp\ldconv_cnvshell_o_87084d30d46a17148.obj (ldconv_cnvshell_o_87084d30d46a17148.obj)
	at offset 00001410 00030H bytes from U:\usr\lib\gcc-lib\i386-pc-os2-emx\3.3.5\libgcc_so_d.lib (__main.obj)
	at offset 00001440 000C0H bytes from U:\usr\lib\gcc-lib\i386-pc-os2-emx\3.3.5\libgcc_so_d.lib (emx-ctordtor.obj)

 0001:00001500 000000000H ________TEXT           CODE 32-bit

 0002:00000000 000100000H STACK                  STACK 32-bit

 0003:00000000 000000170H DATA32                 DATA 32-bit
	at offset 00000000 00048H bytes from U:\usr\lib\crt0wild.obj ({standard input})
	at offset 00000050 00120H bytes from U:\tmp\ldconv_sna2tap_o_87084d30d4691f3a70.obj (ldconv_sna2tap_o_87084d30d4691f3a70.obj)

 0003:00000170 000000004H SET1__os2dll           DATA 32-bit
	at offset 00000000 00004H bytes from U:\usr\lib\crt0wild.obj ({standard input})

 0003:00000174 000000000H SET2__os2dll           DATA 32-bit

 0003:00000174 000000004H SET3__os2dll           DATA 32-bit
	at offset 00000000 00004H bytes from U:\usr\lib\crt0wild.obj ({standard input})

 0003:00000178 000000004H SET1___CTOR_LIST__     DATA 32-bit
	at offset 00000000 00004H bytes from U:\usr\lib\crt0wild.obj ({standard input})

 0003:0000017C 000000004H SET2___CTOR_LIST__     DATA 32-bit
	at offset 00000000 00004H bytes from U:\usr\lib\binmode.obj ({standard input})

 0003:00000180 000000004H SET3___CTOR_LIST__     DATA 32-bit
	at offset 00000000 00004H bytes from U:\usr\lib\crt0wild.obj ({standard input})

 0003:00000184 000000004H SET1___DTOR_LIST__     DATA 32-bit
	at offset 00000000 00004H bytes from U:\usr\lib\crt0wild.obj ({standard input})

 0003:00000188 000000000H SET2___DTOR_LIST__     DATA 32-bit

 0003:00000188 000000004H SET3___DTOR_LIST__     DATA 32-bit
	at offset 00000000 00004H bytes from U:\usr\lib\crt0wild.obj ({standard input})

 0003:0000018C 000000004H SET1___crtinit1__      DATA 32-bit
	at offset 00000000 00004H bytes from U:\usr\lib\crt0wild.obj ({standard input})

 0003:00000190 000000000H SET2___crtinit1__      DATA 32-bit

 0003:00000190 000000004H SET3___crtinit1__      DATA 32-bit
	at offset 00000000 00004H bytes from U:\usr\lib\crt0wild.obj ({standard input})

 0003:00000194 000000004H SET1___crtexit1__      DATA 32-bit
	at offset 00000000 00004H bytes from U:\usr\lib\crt0wild.obj ({standard input})

 0003:00000198 000000000H SET2___crtexit1__      DATA 32-bit

 0003:00000198 000000004H SET3___crtexit1__      DATA 32-bit
	at offset 00000000 00004H bytes from U:\usr\lib\crt0wild.obj ({standard input})

 0003:0000019C 000000004H SET1___eh_frame__      DATA 32-bit
	at offset 00000000 00004H bytes from U:\usr\lib\crt0wild.obj ({standard input})

 0003:000001A0 000000000H SET2___eh_frame__      DATA 32-bit

 0003:000001A0 000000004H SET3___eh_frame__      DATA 32-bit
	at offset 00000000 00004H bytes from U:\usr\lib\crt0wild.obj ({standard input})

 0003:000001A4 000000004H SET1___eh_init__       DATA 32-bit
	at offset 00000000 00004H bytes from U:\usr\lib\crt0wild.obj ({standard input})

 0003:000001A8 000000000H SET2___eh_init__       DATA 32-bit

 0003:000001A8 000000004H SET3___eh_init__       DATA 32-bit
	at offset 00000000 00004H bytes from U:\usr\lib\crt0wild.obj ({standard input})

 0003:000001AC 000000004H SET1___eh_term__       DATA 32-bit
	at offset 00000000 00004H bytes from U:\usr\lib\crt0wild.obj ({standard input})

 0003:000001B0 000000000H SET2___eh_term__       DATA 32-bit

 0003:000001B0 000000004H SET3___eh_term__       DATA 32-bit
	at offset 00000000 00004H bytes from U:\usr\lib\crt0wild.obj ({standard input})

 0003:000001B4 000000004H SET1___fork_parent1__  DATA 32-bit
	at offset 00000000 00004H bytes from U:\usr\lib\crt0wild.obj ({standard input})

 0003:000001B8 000000000H SET2___fork_parent1__  DATA 32-bit

 0003:000001B8 000000004H SET3___fork_parent1__  DATA 32-bit
	at offset 00000000 00004H bytes from U:\usr\lib\crt0wild.obj ({standard input})

 0003:000001BC 000000004H SET1___fork_child1__   DATA 32-bit
	at offset 00000000 00004H bytes from U:\usr\lib\crt0wild.obj ({standard input})

 0003:000001C0 000000004H SET2___fork_child1__   DATA 32-bit
	at offset 00000000 00004H bytes from U:\usr\lib\gcc-lib\i386-pc-os2-emx\3.3.5\libgcc_so_d.lib (emx-ctordtor.obj)

 0003:000001C4 000000004H SET3___fork_child1__   DATA 32-bit
	at offset 00000000 00004H bytes from U:\usr\lib\crt0wild.obj ({standard input})

 0003:000001D0 000000000H ________DATA           DATA 32-bit

 0003:000001D0 00000C920H BSS32                  BSS 32-bit
	at offset 00000000 0C900H bytes from U:\tmp\ldconv_sna2tap_o_87084d30d4691f3a70.obj (ldconv_sna2tap_o_87084d30d4691f3a70.obj)
	at offset 0000C900 00010H bytes from U:\usr\lib\gcc-lib\i386-pc-os2-emx\3.3.5\libgcc_so_d.lib (__main.obj)
	at offset 0000C910 00010H bytes from U:\usr\lib\gcc-lib\i386-pc-os2-emx\3.3.5\libgcc_so_d.lib (emx-ctordtor.obj)

 0003:0000CAF0 000000000H c_common               BSS 32-bit

 0003:0000CAF0 000000000H ________BSS            BSS 32-bit


 Origin   Group
 0000:0   FLAT
 0001:0   CGROUP
 0003:0   DGROUP


 Address         Publics by Name
 0001:00000FF0       main
 0000:00000000  Abs  WEAK$ZERO
 0001:000005D0       _cnv_execute
 0001:00000C40       _cnv_help
 0003:00000064       _cnv_progname
 0001:000000C0       _cnv_set_option
 0003:000001D0       _edata
 0003:0000CAF0       _end
 0001:00001500       _etext
 0001:00000FF0       _main
 0001:000002C0       _mk_loader
 0001:00000CC0       _parse_sna
 0001:00000C80       _peek2
 0001:00000CA0       _poke2
 0001:00000E50       _save
 0001:00000E90       _saveblock
 0000:00000000  Imp  __alloca             (libc063.161)
 0000:00000000  Imp  __atfork_callback    (libc063.445)
 0000:00000000  Imp  __CRT_init           (libc063.167)
 0003:00000000       __data
 0003:000001D0       __edata
 0003:0000CAF0       __end
 0001:00001500       __etext
 0000:00000000  Imp  __fmode_bin          (libc063.19)
 0003:00000170       __os2dll
 0000:00000000  Imp  __std_atexit         (libc063.667)
 0000:00000000  Imp  __std_exit           (libc063.733)
 0000:00000000  Imp  __std_fclose         (libc063.740)
 0000:00000000  Imp  __std_fopen          (libc063.760)
 0000:00000000  Imp  __std_fprintf        (libc063.763)
 0000:00000000  Imp  __std_fread          (libc063.767)
 0000:00000000  Imp  __std_free           (libc063.768)
 0000:00000000  Imp  __std_fwrite         (libc063.785)
 0000:00000000  Imp  __std_malloc         (libc063.856)
 0000:00000000  Imp  __std_memcpy         (libc063.864)
 0000:00000000  Imp  __std_perror         (libc063.886)
 0000:00000000  Imp  __std_puts           (libc063.896)
 0000:00000000  Imp  __std_remove         (libc063.909)
 0000:00000000  Imp  __std_sprintf        (libc063.989)
 0000:00000000  Imp  __std_sscanf         (libc063.994)
 0000:00000000  Imp  __std_strchr         (libc063.999)
 0000:00000000  Imp  __std_strcpy         (libc063.1002)
 0000:00000000  Imp  __std_stricmp        (libc063.1008)
 0000:00000000  Imp  __std_strlen         (libc063.1009)
 0001:00000000       __text
 0000:00000000  Imp  __wildcard           (libc063.1163)
 0003:000001D0       ___bss_start
 0003:00000194       ___crtexit1__
 0003:0000018C       ___crtinit1__
 0001:00001440       ___ctordtorInit
 0000:00000000  Imp  ___ctordtorInit1     (libc063.231)
 0001:0000146E       ___ctordtorTerm
 0000:00000000  Imp  ___ctordtorTerm1     (libc063.232)
 0003:00000178       ___CTOR_LIST__
 0003:00000000       ___data_start
 0001:00001416       ___do_global_ctors
 0001:00001410       ___do_global_dtors
 0003:00000184       ___DTOR_LIST__
 0003:0000019C       ___eh_frame__
 0003:000001A4       ___eh_init__
 0003:000001AC       ___eh_term__
 0003:000001BC       ___fork_child1__
 0003:000001B4       ___fork_parent1__
 0000:00000000  Imp  ___init_app          (libc063.265)
 0000:00000000  Imp  ___libc_ForkRegisterModule (libc063.343)
 0000:00000000  Imp  ___libc_GLocaleCtype (libc063.3)
 0001:00001428       ___main
 0001:0000144A       ___POST$__ctordtorInit
 0001:00001478       ___POST$__ctordtorTerm
 0001:00001426       ___POST$__do_global_ctors
 0001:00001432       ___POST$__main
 0000:00000000  Imp  ___stderrp           (libc063.8)
 0000:00000000  Imp  ___stdinp            (libc063.9)
 0000:00000000  Imp  ___stdoutp           (libc063.10)


 Address         Publics by Value
 0000:00000000  Imp  __std_fprintf        (libc063.763)
 0000:00000000  Imp  __std_free           (libc063.768)
 0000:00000000  Imp  __std_remove         (libc063.909)
 0000:00000000  Imp  __std_perror         (libc063.886)
 0000:00000000  Imp  __std_strlen         (libc063.1009)
 0000:00000000  Imp  __std_strcpy         (libc063.1002)
 0000:00000000  Imp  __std_strchr         (libc063.999)
 0000:00000000  Imp  __std_fwrite         (libc063.785)
 0000:00000000  Imp  ___init_app          (libc063.265)
 0000:00000000  Imp  __std_stricmp        (libc063.1008)
 0000:00000000  Imp  __alloca             (libc063.161)
 0000:00000000  Imp  __wildcard           (libc063.1163)
 0000:00000000  Imp  __std_sprintf        (libc063.989)
 0000:00000000  Imp  ___stdinp            (libc063.9)
 0000:00000000  Imp  ___libc_ForkRegisterModule (libc063.343)
 0000:00000000  Imp  ___ctordtorTerm1     (libc063.232)
 0000:00000000  Imp  __atfork_callback    (libc063.445)
 0000:00000000  Abs  WEAK$ZERO
 0000:00000000  Imp  __std_fread          (libc063.767)
 0000:00000000  Imp  ___stderrp           (libc063.8)
 0000:00000000  Imp  ___libc_GLocaleCtype (libc063.3)
 0000:00000000  Imp  ___stdoutp           (libc063.10)
 0000:00000000  Imp  __std_puts           (libc063.896)
 0000:00000000  Imp  __std_memcpy         (libc063.864)
 0000:00000000  Imp  ___ctordtorInit1     (libc063.231)
 0000:00000000  Imp  __std_fopen          (libc063.760)
 0000:00000000  Imp  __CRT_init           (libc063.167)
 0000:00000000  Imp  __fmode_bin          (libc063.19)
 0000:00000000  Imp  __std_malloc         (libc063.856)
 0000:00000000  Imp  __std_sscanf         (libc063.994)
 0000:00000000  Imp  __std_atexit         (libc063.667)
 0000:00000000  Imp  __std_exit           (libc063.733)
 0000:00000000  Imp  __std_fclose         (libc063.740)
 0001:00000000       __text
 0001:000000C0       _cnv_set_option
 0001:000002C0       _mk_loader
 0001:000005D0       _cnv_execute
 0001:00000C40       _cnv_help
 0001:00000C80       _peek2
 0001:00000CA0       _poke2
 0001:00000CC0       _parse_sna
 0001:00000E50       _save
 0001:00000E90       _saveblock
 0001:00000FF0       main
 0001:00000FF0       _main
 0001:00001410       ___do_global_dtors
 0001:00001416       ___do_global_ctors
 0001:00001426       ___POST$__do_global_ctors
 0001:00001428       ___main
 0001:00001432       ___POST$__main
 0001:00001440       ___ctordtorInit
 0001:0000144A       ___POST$__ctordtorInit
 0001:0000146E       ___ctordtorTerm
 0001:00001478       ___POST$__ctordtorTerm
 0001:00001500       _etext
 0001:00001500       __etext
 0003:00000000       ___data_start
 0003:00000000       __data
 0003:00000064       _cnv_progname
 0003:00000170       __os2dll
 0003:00000178       ___CTOR_LIST__
 0003:00000184       ___DTOR_LIST__
 0003:0000018C       ___crtinit1__
 0003:00000194       ___crtexit1__
 0003:0000019C       ___eh_frame__
 0003:000001A4       ___eh_init__
 0003:000001AC       ___eh_term__
 0003:000001B4       ___fork_parent1__
 0003:000001BC       ___fork_child1__
 0003:000001D0       __edata
 0003:000001D0       ___bss_start
 0003:000001D0       _edata
 0003:0000CAF0       __end
 0003:0000CAF0       _end

Program entry point at 0001:00000000
